
There are no discarded input sections

Memory Configuration

Name             Origin             Length             Attributes
*default*        0x0000000000000000 0xffffffffffffffff

Linker script and memory map

                0xffffffff80100000                . = 0xffffffff80100000

.text           0xffffffff80100000     0x91c4
 *(.text.boot)
 .text.boot     0xffffffff80100000       0x48 build/kernel/architecture/x86_64/start.asm.o
                0xffffffff80100000                _start
 *(.text)
 *fill*         0xffffffff80100048        0x8 
 .text          0xffffffff80100050       0x18 build/kernel/architecture/x86_64/gdt_flush.asm.o
                0xffffffff80100050                gdt_flush
 *fill*         0xffffffff80100068        0x8 
 .text          0xffffffff80100070        0x4 build/kernel/architecture/x86_64/idt_flush.asm.o
                0xffffffff80100070                idt_flush
 *fill*         0xffffffff80100074        0xc 
 .text          0xffffffff80100080       0xef build/kernel/architecture/x86_64/isr.asm.o
                0xffffffff80100080                isr0
                0xffffffff80100087                isr1
                0xffffffff8010008e                isr2
                0xffffffff80100095                isr3
                0xffffffff8010009c                isr128
                0xffffffff801000a6                isr8
                0xffffffff801000ab                isr13
                0xffffffff801000b0                isr14
                0xffffffff801000b5                irq0
                0xffffffff801000bc                irq1
 *fill*         0xffffffff8010016f        0x1 
 .text          0xffffffff80100170       0xa0 build/kernel/architecture/x86_64/switch.asm.o
                0xffffffff80100170                switch_context
 .text          0xffffffff80100210       0x52 build/kernel/architecture/x86_64/usermode.asm.o
                0xffffffff80100210                enter_usermode
                0xffffffff80100229                iret_to_usermode
                0xffffffff80100238                enter_ring3
 *fill*         0xffffffff80100262        0xe 
 .text          0xffffffff80100270       0x90 build/kernel/architecture/x86_64/syscall_entry.asm.o
                0xffffffff80100270                syscall_entry
 .text          0xffffffff80100300      0xf53 build/kernel/core/kernel.o
                0xffffffff80100326                kernel_main
 *fill*         0xffffffff80101253       0x2d 
 .text          0xffffffff80101280      0x8a6 build/kernel/core/kprintf.o
                0xffffffff80101409                kvsnprintf
                0xffffffff801019be                kprintf
                0xffffffff80101a4a                kserial_printf
                0xffffffff80101af0                ksnprintf
 .text          0xffffffff80101b26       0x6f build/kernel/core/panic.o
                0xffffffff80101b26                kpanic
 *fill*         0xffffffff80101b95        0xb 
 .text          0xffffffff80101ba0      0x2e6 build/kernel/memory/mem.o
                0xffffffff80101ba0                mem_init
                0xffffffff80101c06                kmalloc
                0xffffffff80101d22                kfree
                0xffffffff80101d96                mem_print_stats
 *fill*         0xffffffff80101e86       0x1a 
 .text          0xffffffff80101ea0      0x4e7 build/kernel/memory/pmm.o
                0xffffffff80101ee6                pmm_init
                0xffffffff80102223                pmm_alloc
                0xffffffff801022ae                pmm_free
                0xffffffff801022cb                pmm_free_pages
                0xffffffff801022da                pmm_used_pages
                0xffffffff801022e2                pmm_print_stats
 *fill*         0xffffffff80102387       0x39 
 .text          0xffffffff801023c0      0xe20 build/kernel/processes/process.o
                0xffffffff801023c0                process_init
                0xffffffff80102419                process_create
                0xffffffff8010271f                process_exit
                0xffffffff80102747                process_print_all
                0xffffffff8010281c                process_block
                0xffffffff80102829                process_wake
                0xffffffff8010283c                process_wait
                0xffffffff801028e6                process_spawn
                0xffffffff801029a7                create_user_process
                0xffffffff80102c49                process_fork
                0xffffffff80103014                process_exec
 .text          0xffffffff801031e0      0x2b6 build/kernel/processes/scheduler.o
                0xffffffff801031e0                scheduler_init
                0xffffffff8010320d                scheduler_add
                0xffffffff8010328c                scheduler_tick
                0xffffffff801033ab                scheduler_yield
                0xffffffff801033d2                scheduler_start
 *fill*         0xffffffff80103496        0xa 
 .text          0xffffffff801034a0      0x5d2 build/kernel/processes/syscall.o
                0xffffffff801039dc                syscall_handler
                0xffffffff80103a5b                syscall_init
 .text          0xffffffff80103a72      0x227 build/kernel/architecture/x86_64/gdt.o
                0xffffffff80103a72                gdt_init
                0xffffffff80103c3f                gdt_set_tss_entry
 *fill*         0xffffffff80103c99        0x1 
 .text          0xffffffff80103c9a      0x314 build/kernel/architecture/x86_64/idt.o
                0xffffffff80103c9a                idt_set_entry
                0xffffffff80103cd4                idt_init
                0xffffffff80103ded                syscall_msr_init
                0xffffffff80103e2d                isr_handler
                0xffffffff80103f5a                irq_handler
 .text          0xffffffff80103fae       0xb8 build/kernel/architecture/x86_64/pic.o
                0xffffffff80103fae                pic_init
                0xffffffff8010401a                pic_send_eoi
                0xffffffff8010402e                pic_mask
                0xffffffff8010404e                pic_unmask
 *fill*         0xffffffff80104066        0xa 
 .text          0xffffffff80104070       0x92 build/kernel/architecture/x86_64/tss.o
                0xffffffff80104070                tss_init
                0xffffffff801040fa                tss_set_kernel_stack
 *fill*         0xffffffff80104102       0x1e 
 .text          0xffffffff80104120      0xd18 build/kernel/architecture/x86_64/paging.o
                0xffffffff801043da                physical_to_virtual
                0xffffffff801043e8                virtual_to_physical
                0xffffffff801043f6                paging_init
                0xffffffff8010445a                map_page
                0xffffffff8010452c                map_page_in
                0xffffffff80104617                unmap_page
                0xffffffff8010464e                get_physical
                0xffffffff801046de                get_physical_in
                0xffffffff80104764                paging_clone_directory
                0xffffffff801047c5                paging_switch_directory
                0xffffffff80104801                paging_deep_copy_directory
                0xffffffff80104b76                paging_free_directory
                0xffffffff80104d0e                page_fault_handler
 .text          0xffffffff80104e38       0x3f build/kernel/architecture/x86_64/usermode.o
                0xffffffff80104e38                jump_to_usermode
 *fill*         0xffffffff80104e77        0x9 
 .text          0xffffffff80104e80      0x575 build/kernel/core/elf.o
                0xffffffff80104e80                elf_get_entry
                0xffffffff80104f3d                elf_load
                0xffffffff801052ce                elf_load_from_path
 *fill*         0xffffffff801053f5        0xb 
 .text          0xffffffff80105400      0x247 build/drivers/display/vga.o
                0xffffffff80105400                vga_set_colour
                0xffffffff8010540d                vga_clear
                0xffffffff80105451                vga_putchar
                0xffffffff801055c5                vga_print
                0xffffffff801055f4                vga_init
                0xffffffff8010560b                dev_display_write
 .text          0xffffffff80105647       0xe0 build/drivers/input/keyboard.o
                0xffffffff80105647                keyboard_handler
                0xffffffff80105684                keyboard_init
                0xffffffff80105685                keyboard_wait
                0xffffffff801056b0                keyboard_getchar
                0xffffffff801056e7                dev_keyboard_read
 *fill*         0xffffffff80105727       0x19 
 .text          0xffffffff80105740      0x12b build/drivers/timer/timer.o
                0xffffffff80105740                timer_handler
                0xffffffff8010583c                timer_get_ticks
                0xffffffff80105843                timer_get_seconds
                0xffffffff80105855                timer_init
 .text          0xffffffff8010586b      0x10f build/drivers/serial/serial.o
                0xffffffff8010586b                serial_putchar
                0xffffffff8010587e                serial_print
                0xffffffff801058ba                serial_println
                0xffffffff801058d1                serial_init
                0xffffffff80105938                dev_serial_read
                0xffffffff8010593e                dev_serial_write
 .text          0xffffffff8010597a        0x9 build/drivers/null/null.o
                0xffffffff8010597a                dev_null_read
                0xffffffff80105980                dev_null_write
 *fill*         0xffffffff80105983       0x1d 
 .text          0xffffffff801059a0       0xbe build/drivers/random/random.o
                0xffffffff801059a0                dev_random_read
 *fill*         0xffffffff80105a5e       0x22 
 .text          0xffffffff80105a80      0xf6d build/file_system/vfs/vfs.o
                0xffffffff80105a80                vfs_init
                0xffffffff80105b2d                vfs_mount
                0xffffffff80105cb0                vfs_find_mount
                0xffffffff80105d65                vfs_resolve_path
                0xffffffff801061e7                vfs_alloc_fd
                0xffffffff80106244                vfs_free_fd
                0xffffffff8010625c                vfs_get_file
                0xffffffff80106276                vfs_open
                0xffffffff801062eb                vfs_open_at
                0xffffffff80106362                vfs_close
                0xffffffff801063ee                vfs_read
                0xffffffff8010648f                vfs_seek
                0xffffffff80106516                vfs_write
                0xffffffff801065b7                vfs_mkdir
                0xffffffff8010678e                vfs_readdir
                0xffffffff8010681d                vfs_delete
 *fill*         0xffffffff801069ed       0x13 
 .text          0xffffffff80106a00      0xc6d build/file_system/shadowfs/shadowfs.o
                0xffffffff801074a7                shadowfs_get_ops
                0xffffffff801074af                shadowfs_mount
                0xffffffff8010762a                shadowfs_stats
 *fill*         0xffffffff8010766d       0x13 
 .text          0xffffffff80107680      0x518 build/file_system/devfs/devfs.o
                0xffffffff80107939                devfs_get_ops
                0xffffffff80107941                devfs_mount
                0xffffffff80107a59                devfs_register
 *fill*         0xffffffff80107b98       0x28 
 .text          0xffffffff80107bc0      0xb90 build/file_system/procfs/procfs.o
                0xffffffff80108690                procfs_get_ops
                0xffffffff80108698                procfs_mount
 *fill*         0xffffffff80108750       0x10 
 .text          0xffffffff80108760      0xa64 build/apps/shell/shell.o
                0xffffffff80108fd2                shell_handle_key
                0xffffffff801091aa                shell_init

.rodata         0xffffffff801091e0     0x2eab
 *(.rodata)
 .rodata        0xffffffff801091e0      0x160 build/kernel/core/kprintf.o
 .rodata        0xffffffff80109340       0x70 build/kernel/processes/syscall.o
 *fill*         0xffffffff801093b0       0x10 
 .rodata        0xffffffff801093c0       0x3b build/drivers/input/keyboard.o
 *fill*         0xffffffff801093fb        0x5 
 .rodata        0xffffffff80109400       0x20 build/file_system/procfs/procfs.o
 .rodata        0xffffffff80109420       0xd0 build/apps/shell/shell.o
 *(.rodata.*)
 .rodata.str1.1
                0xffffffff801094f0      0x4f4 build/kernel/core/kernel.o
 *fill*         0xffffffff801099e4        0x4 
 .rodata.str1.8
                0xffffffff801099e8      0x2bd build/kernel/core/kernel.o
 .rodata.str1.1
                0xffffffff80109ca5       0x18 build/kernel/core/kprintf.o
 .rodata.str1.1
                0xffffffff80109cbd       0x55 build/kernel/core/panic.o
 .rodata.str1.1
                0xffffffff80109d12       0xe0 build/kernel/memory/mem.o
 *fill*         0xffffffff80109df2        0x6 
 .rodata.str1.8
                0xffffffff80109df8       0x6f build/kernel/memory/mem.o
 .rodata.str1.1
                0xffffffff80109e67      0x1f8 build/kernel/memory/pmm.o
 *fill*         0xffffffff8010a05f        0x1 
 .rodata.str1.8
                0xffffffff8010a060       0xdb build/kernel/memory/pmm.o
 *fill*         0xffffffff8010a13b        0x5 
 .rodata.str1.8
                0xffffffff8010a140      0x347 build/kernel/processes/process.o
 .rodata.str1.1
                0xffffffff8010a487      0x13d build/kernel/processes/process.o
 .rodata.str1.1
                0xffffffff8010a5c4       0x86 build/kernel/processes/scheduler.o
 *fill*         0xffffffff8010a64a        0x6 
 .rodata.str1.8
                0xffffffff8010a650       0xbf build/kernel/processes/scheduler.o
 .rodata.str1.1
                0xffffffff8010a70f      0x104 build/kernel/processes/syscall.o
 *fill*         0xffffffff8010a813        0x5 
 .rodata.str1.8
                0xffffffff8010a818       0xc9 build/kernel/processes/syscall.o
 .rodata.str1.1
                0xffffffff8010a8e1       0x34 build/kernel/architecture/x86_64/gdt.o
 .rodata.str1.1
                0xffffffff8010a915       0x90 build/kernel/architecture/x86_64/idt.o
 *fill*         0xffffffff8010a9a5        0x3 
 .rodata.str1.8
                0xffffffff8010a9a8       0x2a build/kernel/architecture/x86_64/idt.o
 .rodata.str1.1
                0xffffffff8010a9d2       0x29 build/kernel/architecture/x86_64/tss.o
 *fill*         0xffffffff8010a9fb        0x5 
 .rodata.str1.8
                0xffffffff8010aa00      0x1f4 build/kernel/architecture/x86_64/paging.o
 .rodata.str1.1
                0xffffffff8010abf4      0x114 build/kernel/architecture/x86_64/paging.o
 .rodata.str1.8
                0xffffffff8010ad08       0x28 build/kernel/architecture/x86_64/usermode.o
 .rodata.str1.1
                0xffffffff8010ad30       0x5f build/kernel/core/elf.o
 *fill*         0xffffffff8010ad8f        0x1 
 .rodata.str1.8
                0xffffffff8010ad90       0xfd build/kernel/core/elf.o
 .rodata.str1.1
                0xffffffff8010ae8d       0x3e build/drivers/serial/serial.o
 *fill*         0xffffffff8010aecb        0x5 
 .rodata.str1.8
                0xffffffff8010aed0       0x1f build/drivers/random/random.o
 .rodata.str1.1
                0xffffffff8010aeef      0x184 build/file_system/vfs/vfs.o
 *fill*         0xffffffff8010b073        0x5 
 .rodata.str1.8
                0xffffffff8010b078      0x3cb build/file_system/vfs/vfs.o
 *fill*         0xffffffff8010b443        0x5 
 .rodata.str1.8
                0xffffffff8010b448      0x296 build/file_system/shadowfs/shadowfs.o
 .rodata.str1.1
                0xffffffff8010b6de      0x109 build/file_system/shadowfs/shadowfs.o
 *fill*         0xffffffff8010b7e7        0x1 
 .rodata.str1.8
                0xffffffff8010b7e8      0x127 build/file_system/devfs/devfs.o
 .rodata.str1.1
                0xffffffff8010b90f       0x68 build/file_system/devfs/devfs.o
 .rodata.str1.1
                0xffffffff8010b977       0xe7 build/file_system/procfs/procfs.o
 *fill*         0xffffffff8010ba5e        0x2 
 .rodata.str1.8
                0xffffffff8010ba60      0x1d6 build/file_system/procfs/procfs.o
 .rodata.str1.1
                0xffffffff8010bc36      0x220 build/apps/shell/shell.o
 *fill*         0xffffffff8010be56        0x2 
 .rodata.str1.8
                0xffffffff8010be58      0x233 build/apps/shell/shell.o

.eh_frame       0xffffffff8010c090     0x1b78
 .eh_frame      0xffffffff8010c090       0x68 build/kernel/core/kernel.o
 .eh_frame      0xffffffff8010c0f8      0x108 build/kernel/core/kprintf.o
 .eh_frame      0xffffffff8010c200       0x38 build/kernel/core/panic.o
 .eh_frame      0xffffffff8010c238       0xa0 build/kernel/memory/mem.o
 .eh_frame      0xffffffff8010c2d8      0x108 build/kernel/memory/pmm.o
 .eh_frame      0xffffffff8010c3e0      0x1e8 build/kernel/processes/process.o
 .eh_frame      0xffffffff8010c5c8       0xd0 build/kernel/processes/scheduler.o
 .eh_frame      0xffffffff8010c698      0x278 build/kernel/processes/syscall.o
 .eh_frame      0xffffffff8010c910       0x58 build/kernel/architecture/x86_64/gdt.o
 .eh_frame      0xffffffff8010c968       0xb0 build/kernel/architecture/x86_64/idt.o
 .eh_frame      0xffffffff8010ca18       0x68 build/kernel/architecture/x86_64/pic.o
 .eh_frame      0xffffffff8010ca80       0x50 build/kernel/architecture/x86_64/tss.o
 .eh_frame      0xffffffff8010cad0      0x278 build/kernel/architecture/x86_64/paging.o
 .eh_frame      0xffffffff8010cd48       0x40 build/kernel/architecture/x86_64/usermode.o
 .eh_frame      0xffffffff8010cd88       0xb0 build/kernel/core/elf.o
 .eh_frame      0xffffffff8010ce38       0xc8 build/drivers/display/vga.o
 .eh_frame      0xffffffff8010cf00       0xb8 build/drivers/input/keyboard.o
 .eh_frame      0xffffffff8010cfb8       0x78 build/drivers/timer/timer.o
 .eh_frame      0xffffffff8010d030       0xd8 build/drivers/serial/serial.o
 .eh_frame      0xffffffff8010d108       0x40 build/drivers/null/null.o
 .eh_frame      0xffffffff8010d148       0x48 build/drivers/random/random.o
 .eh_frame      0xffffffff8010d190      0x2d0 build/file_system/vfs/vfs.o
 .eh_frame      0xffffffff8010d460      0x250 build/file_system/shadowfs/shadowfs.o
 .eh_frame      0xffffffff8010d6b0      0x188 build/file_system/devfs/devfs.o
 .eh_frame      0xffffffff8010d838      0x158 build/file_system/procfs/procfs.o
 .eh_frame      0xffffffff8010d990      0x278 build/apps/shell/shell.o

.data           0xffffffff8010dc20      0x140
 *(.data)
 .data          0xffffffff8010dc20       0x10 build/kernel/architecture/x86_64/syscall_entry.asm.o
 .data          0xffffffff8010dc30        0x0 build/kernel/core/kernel.o
 .data          0xffffffff8010dc30        0x0 build/kernel/core/kprintf.o
 .data          0xffffffff8010dc30        0x0 build/kernel/core/panic.o
 .data          0xffffffff8010dc30        0x0 build/kernel/memory/mem.o
 .data          0xffffffff8010dc30        0x0 build/kernel/memory/pmm.o
 .data          0xffffffff8010dc30        0x0 build/kernel/processes/process.o
 .data          0xffffffff8010dc30        0x0 build/kernel/processes/scheduler.o
 .data          0xffffffff8010dc30        0x0 build/kernel/processes/syscall.o
 .data          0xffffffff8010dc30        0x0 build/kernel/architecture/x86_64/gdt.o
 .data          0xffffffff8010dc30        0x0 build/kernel/architecture/x86_64/idt.o
 .data          0xffffffff8010dc30        0x0 build/kernel/architecture/x86_64/pic.o
 .data          0xffffffff8010dc30        0x0 build/kernel/architecture/x86_64/tss.o
 .data          0xffffffff8010dc30        0x0 build/kernel/architecture/x86_64/paging.o
 .data          0xffffffff8010dc30        0x0 build/kernel/architecture/x86_64/usermode.o
 .data          0xffffffff8010dc30        0x0 build/kernel/core/elf.o
 .data          0xffffffff8010dc30        0x0 build/drivers/display/vga.o
 .data          0xffffffff8010dc30        0x0 build/drivers/input/keyboard.o
 .data          0xffffffff8010dc30        0x0 build/drivers/timer/timer.o
 .data          0xffffffff8010dc30        0x0 build/drivers/serial/serial.o
 .data          0xffffffff8010dc30        0x0 build/drivers/null/null.o
 .data          0xffffffff8010dc30        0x0 build/drivers/random/random.o
 .data          0xffffffff8010dc30        0x0 build/file_system/vfs/vfs.o
 *fill*         0xffffffff8010dc30       0x10 
 .data          0xffffffff8010dc40       0x60 build/file_system/shadowfs/shadowfs.o
 .data          0xffffffff8010dca0       0x60 build/file_system/devfs/devfs.o
 .data          0xffffffff8010dd00       0x60 build/file_system/procfs/procfs.o
 .data          0xffffffff8010dd60        0x0 build/apps/shell/shell.o

.bss            0xffffffff8010e000     0x4480
                0xffffffff8010e000                __bss_start = .
 *(.bss)
 .bss           0xffffffff8010e000        0x0 build/kernel/core/kernel.o
 .bss           0xffffffff8010e000        0x0 build/kernel/core/kprintf.o
 .bss           0xffffffff8010e000        0x0 build/kernel/core/panic.o
 .bss           0xffffffff8010e000       0x10 build/kernel/memory/mem.o
 .bss           0xffffffff8010e010       0x10 build/kernel/memory/pmm.o
 .bss           0xffffffff8010e020       0xa0 build/kernel/processes/process.o
                0xffffffff8010e020                next_pid
                0xffffffff8010e028                current_process
                0xffffffff8010e040                process_table
 .bss           0xffffffff8010e0c0       0x10 build/kernel/processes/scheduler.o
 .bss           0xffffffff8010e0d0        0x0 build/kernel/processes/syscall.o
 *fill*         0xffffffff8010e0d0       0x10 
 .bss           0xffffffff8010e0e0       0x60 build/kernel/architecture/x86_64/gdt.o
 .bss           0xffffffff8010e140     0x1020 build/kernel/architecture/x86_64/idt.o
 .bss           0xffffffff8010f160        0x0 build/kernel/architecture/x86_64/pic.o
 .bss           0xffffffff8010f160       0x68 build/kernel/architecture/x86_64/tss.o
 .bss           0xffffffff8010f1c8        0x8 build/kernel/architecture/x86_64/paging.o
                0xffffffff8010f1c8                kernel_pml4
 *fill*         0xffffffff8010f1d0      0xe30 
 .bss           0xffffffff80110000     0x1000 build/kernel/architecture/x86_64/usermode.o
 .bss           0xffffffff80111000        0x0 build/kernel/core/elf.o
 .bss           0xffffffff80111000        0xc build/drivers/display/vga.o
 *fill*         0xffffffff8011100c        0x4 
 .bss           0xffffffff80111010        0x9 build/drivers/input/keyboard.o
                0xffffffff80111010                keyboard_waiting
 *fill*         0xffffffff80111019        0x3 
 .bss           0xffffffff8011101c        0x4 build/drivers/timer/timer.o
 .bss           0xffffffff80111020        0x0 build/drivers/serial/serial.o
 .bss           0xffffffff80111020        0x0 build/drivers/null/null.o
 .bss           0xffffffff80111020        0x0 build/drivers/random/random.o
 .bss           0xffffffff80111020      0xe20 build/file_system/vfs/vfs.o
 .bss           0xffffffff80111e40        0x0 build/file_system/shadowfs/shadowfs.o
 .bss           0xffffffff80111e40      0x518 build/file_system/devfs/devfs.o
 .bss           0xffffffff80112358        0x0 build/file_system/procfs/procfs.o
 *fill*         0xffffffff80112358        0x8 
 .bss           0xffffffff80112360      0x120 build/apps/shell/shell.o
 *(COMMON)
                0xffffffff80112480                __bss_end = .
LOAD build/kernel/architecture/x86_64/start.asm.o
LOAD build/kernel/architecture/x86_64/gdt_flush.asm.o
LOAD build/kernel/architecture/x86_64/idt_flush.asm.o
LOAD build/kernel/architecture/x86_64/isr.asm.o
LOAD build/kernel/architecture/x86_64/switch.asm.o
LOAD build/kernel/architecture/x86_64/usermode.asm.o
LOAD build/kernel/architecture/x86_64/syscall_entry.asm.o
LOAD build/kernel/core/kernel.o
LOAD build/kernel/core/kprintf.o
LOAD build/kernel/core/panic.o
LOAD build/kernel/memory/mem.o
LOAD build/kernel/memory/pmm.o
LOAD build/kernel/processes/process.o
LOAD build/kernel/processes/scheduler.o
LOAD build/kernel/processes/syscall.o
LOAD build/kernel/architecture/x86_64/gdt.o
LOAD build/kernel/architecture/x86_64/idt.o
LOAD build/kernel/architecture/x86_64/pic.o
LOAD build/kernel/architecture/x86_64/tss.o
LOAD build/kernel/architecture/x86_64/paging.o
LOAD build/kernel/architecture/x86_64/usermode.o
LOAD build/kernel/core/elf.o
LOAD build/drivers/display/vga.o
LOAD build/drivers/input/keyboard.o
LOAD build/drivers/timer/timer.o
LOAD build/drivers/serial/serial.o
LOAD build/drivers/null/null.o
LOAD build/drivers/random/random.o
LOAD build/file_system/vfs/vfs.o
LOAD build/file_system/shadowfs/shadowfs.o
LOAD build/file_system/devfs/devfs.o
LOAD build/file_system/procfs/procfs.o
LOAD build/apps/shell/shell.o
OUTPUT(build/kernel.bin binary)

.comment        0x0000000000000000      0x1ee
 .comment       0x0000000000000000       0x13 build/kernel/core/kernel.o
 .comment       0x0000000000000013       0x13 build/kernel/core/kprintf.o
 .comment       0x0000000000000026       0x13 build/kernel/core/panic.o
 .comment       0x0000000000000039       0x13 build/kernel/memory/mem.o
 .comment       0x000000000000004c       0x13 build/kernel/memory/pmm.o
 .comment       0x000000000000005f       0x13 build/kernel/processes/process.o
 .comment       0x0000000000000072       0x13 build/kernel/processes/scheduler.o
 .comment       0x0000000000000085       0x13 build/kernel/processes/syscall.o
 .comment       0x0000000000000098       0x13 build/kernel/architecture/x86_64/gdt.o
 .comment       0x00000000000000ab       0x13 build/kernel/architecture/x86_64/idt.o
 .comment       0x00000000000000be       0x13 build/kernel/architecture/x86_64/pic.o
 .comment       0x00000000000000d1       0x13 build/kernel/architecture/x86_64/tss.o
 .comment       0x00000000000000e4       0x13 build/kernel/architecture/x86_64/paging.o
 .comment       0x00000000000000f7       0x13 build/kernel/architecture/x86_64/usermode.o
 .comment       0x000000000000010a       0x13 build/kernel/core/elf.o
 .comment       0x000000000000011d       0x13 build/drivers/display/vga.o
 .comment       0x0000000000000130       0x13 build/drivers/input/keyboard.o
 .comment       0x0000000000000143       0x13 build/drivers/timer/timer.o
 .comment       0x0000000000000156       0x13 build/drivers/serial/serial.o
 .comment       0x0000000000000169       0x13 build/drivers/null/null.o
 .comment       0x000000000000017c       0x13 build/drivers/random/random.o
 .comment       0x000000000000018f       0x13 build/file_system/vfs/vfs.o
 .comment       0x00000000000001a2       0x13 build/file_system/shadowfs/shadowfs.o
 .comment       0x00000000000001b5       0x13 build/file_system/devfs/devfs.o
 .comment       0x00000000000001c8       0x13 build/file_system/procfs/procfs.o
 .comment       0x00000000000001db       0x13 build/apps/shell/shell.o
