
There are no discarded input sections

Memory Configuration

Name             Origin             Length             Attributes
*default*        0x0000000000000000 0xffffffffffffffff

Linker script and memory map

                0xffffffff80100000                . = 0xffffffff80100000

.text           0xffffffff80100000     0x7604
 *(.text.boot)
 .text.boot     0xffffffff80100000       0x48 build/kernel/architecture/x86_64/start.asm.o
                0xffffffff80100000                _start
 *(.text)
 *fill*         0xffffffff80100048        0x8 
 .text          0xffffffff80100050       0x18 build/kernel/architecture/x86_64/gdt_flush.asm.o
                0xffffffff80100050                gdt_flush
 *fill*         0xffffffff80100068        0x8 
 .text          0xffffffff80100070        0x4 build/kernel/architecture/x86_64/idt_flush.asm.o
                0xffffffff80100070                idt_flush
 *fill*         0xffffffff80100074        0xc 
 .text          0xffffffff80100080       0xe5 build/kernel/architecture/x86_64/isr.asm.o
                0xffffffff80100080                isr0
                0xffffffff80100087                isr1
                0xffffffff8010008e                isr2
                0xffffffff80100095                isr3
                0xffffffff8010009c                isr128
                0xffffffff801000a6                isr14
                0xffffffff801000ab                irq0
                0xffffffff801000b2                irq1
 *fill*         0xffffffff80100165        0xb 
 .text          0xffffffff80100170       0xa1 build/kernel/architecture/x86_64/switch.asm.o
                0xffffffff80100170                switch_context
 *fill*         0xffffffff80100211        0xf 
 .text          0xffffffff80100220       0x28 build/kernel/architecture/x86_64/usermode.asm.o
                0xffffffff80100220                enter_usermode
                0xffffffff80100239                iret_to_usermode
 .text          0xffffffff80100248      0xd93 build/kernel/core/kernel.o
                0xffffffff801002f8                kernel_main
 *fill*         0xffffffff80100fdb       0x25 
 .text          0xffffffff80101000      0x870 build/kernel/core/kprintf.o
                0xffffffff80101189                kvsnprintf
                0xffffffff8010173e                kprintf
                0xffffffff801017ca                kserial_printf
 .text          0xffffffff80101870       0x6f build/kernel/core/panic.o
                0xffffffff80101870                kpanic
 *fill*         0xffffffff801018df        0x1 
 .text          0xffffffff801018e0      0x2e6 build/kernel/memory/mem.o
                0xffffffff801018e0                mem_init
                0xffffffff80101946                kmalloc
                0xffffffff80101a62                kfree
                0xffffffff80101ad6                mem_print_stats
 *fill*         0xffffffff80101bc6       0x1a 
 .text          0xffffffff80101be0      0x4e7 build/kernel/memory/pmm.o
                0xffffffff80101c26                pmm_init
                0xffffffff80101f63                pmm_alloc
                0xffffffff80101fee                pmm_free
                0xffffffff8010200b                pmm_free_pages
                0xffffffff8010201a                pmm_used_pages
                0xffffffff80102022                pmm_print_stats
 *fill*         0xffffffff801020c7       0x39 
 .text          0xffffffff80102100      0xc9c build/kernel/processes/process.o
                0xffffffff80102100                process_init
                0xffffffff80102159                process_create
                0xffffffff801023d7                process_exit
                0xffffffff801023ff                process_print_all
                0xffffffff801024bc                process_block
                0xffffffff801024c9                process_wake
                0xffffffff801024dc                create_user_process
                0xffffffff8010278d                process_fork
                0xffffffff80102b95                process_exec
 .text          0xffffffff80102d9c      0x2b7 build/kernel/processes/scheduler.o
                0xffffffff80102d9c                scheduler_init
                0xffffffff80102dc9                scheduler_add
                0xffffffff80102e48                scheduler_tick
                0xffffffff80102f67                scheduler_yield
                0xffffffff80102f8e                scheduler_start
 *fill*         0xffffffff80103053        0xd 
 .text          0xffffffff80103060      0x612 build/kernel/processes/syscall.o
                0xffffffff801035dc                syscall_handler
                0xffffffff8010365b                syscall_init
 .text          0xffffffff80103672      0x1f9 build/kernel/architecture/x86_64/gdt.o
                0xffffffff80103672                gdt_init
                0xffffffff80103811                gdt_set_tss_entry
 *fill*         0xffffffff8010386b        0x1 
 .text          0xffffffff8010386c      0x22c build/kernel/architecture/x86_64/idt.o
                0xffffffff8010386c                idt_set_entry
                0xffffffff801038a6                idt_init
                0xffffffff801039a4                isr_handler
                0xffffffff80103a44                irq_handler
 .text          0xffffffff80103a98       0xb8 build/kernel/architecture/x86_64/pic.o
                0xffffffff80103a98                pic_init
                0xffffffff80103b04                pic_send_eoi
                0xffffffff80103b18                pic_mask
                0xffffffff80103b38                pic_unmask
 .text          0xffffffff80103b50       0x92 build/kernel/architecture/x86_64/tss.o
                0xffffffff80103b50                tss_init
                0xffffffff80103bda                tss_set_kernel_stack
 *fill*         0xffffffff80103be2       0x1e 
 .text          0xffffffff80103c00      0xa8a build/kernel/architecture/x86_64/paging.o
                0xffffffff80103eba                physical_to_virtual
                0xffffffff80103ec8                virtual_to_physical
                0xffffffff80103ed6                paging_init
                0xffffffff80103f15                map_page
                0xffffffff80103fe3                map_page_in
                0xffffffff801040ca                unmap_page
                0xffffffff80104101                get_physical
                0xffffffff80104191                paging_clone_directory
                0xffffffff80104205                paging_switch_directory
                0xffffffff80104241                paging_deep_copy_directory
                0xffffffff80104573                page_fault_handler
 .text          0xffffffff8010468a       0x3f build/kernel/architecture/x86_64/usermode.o
                0xffffffff8010468a                jump_to_usermode
 *fill*         0xffffffff801046c9       0x17 
 .text          0xffffffff801046e0      0x247 build/drivers/display/vga.o
                0xffffffff801046e0                vga_set_colour
                0xffffffff801046ed                vga_clear
                0xffffffff80104731                vga_putchar
                0xffffffff801048a5                vga_print
                0xffffffff801048d4                vga_init
                0xffffffff801048eb                dev_display_write
 .text          0xffffffff80104927       0xe0 build/drivers/input/keyboard.o
                0xffffffff80104927                keyboard_handler
                0xffffffff80104964                keyboard_init
                0xffffffff80104965                keyboard_wait
                0xffffffff80104990                keyboard_getchar
                0xffffffff801049c7                dev_keyboard_read
 *fill*         0xffffffff80104a07       0x19 
 .text          0xffffffff80104a20      0x12b build/drivers/timer/timer.o
                0xffffffff80104a20                timer_handler
                0xffffffff80104b1c                timer_get_ticks
                0xffffffff80104b23                timer_get_seconds
                0xffffffff80104b35                timer_init
 .text          0xffffffff80104b4b      0x10f build/drivers/serial/serial.o
                0xffffffff80104b4b                serial_putchar
                0xffffffff80104b5e                serial_print
                0xffffffff80104b9a                serial_println
                0xffffffff80104bb1                serial_init
                0xffffffff80104c18                dev_serial_read
                0xffffffff80104c1e                dev_serial_write
 .text          0xffffffff80104c5a        0x9 build/drivers/null/null.o
                0xffffffff80104c5a                dev_null_read
                0xffffffff80104c60                dev_null_write
 *fill*         0xffffffff80104c63       0x1d 
 .text          0xffffffff80104c80       0xbe build/drivers/random/random.o
                0xffffffff80104c80                dev_random_read
 *fill*         0xffffffff80104d3e        0x2 
 .text          0xffffffff80104d40      0xecd build/file_system/vfs/vfs.o
                0xffffffff80104d40                vfs_init
                0xffffffff80104ded                vfs_mount
                0xffffffff80104f70                vfs_find_mount
                0xffffffff80105025                vfs_resolve_path
                0xffffffff801051f7                vfs_alloc_fd
                0xffffffff80105244                vfs_free_fd
                0xffffffff8010525c                vfs_get_file
                0xffffffff80105276                vfs_open
                0xffffffff80105579                vfs_close
                0xffffffff80105605                vfs_read
                0xffffffff801056a6                vfs_seek
                0xffffffff8010572d                vfs_write
                0xffffffff801057ce                vfs_mkdir
                0xffffffff801059ae                vfs_readdir
                0xffffffff80105a3d                vfs_delete
 *fill*         0xffffffff80105c0d       0x13 
 .text          0xffffffff80105c20      0xc6d build/file_system/shadowfs/shadowfs.o
                0xffffffff801066c7                shadowfs_get_ops
                0xffffffff801066cf                shadowfs_mount
                0xffffffff8010684a                shadowfs_stats
 *fill*         0xffffffff8010688d       0x13 
 .text          0xffffffff801068a0      0x518 build/file_system/devfs/devfs.o
                0xffffffff80106b59                devfs_get_ops
                0xffffffff80106b61                devfs_mount
                0xffffffff80106c79                devfs_register
 *fill*         0xffffffff80106db8        0x8 
 .text          0xffffffff80106dc0      0x844 build/apps/shell/shell.o
                0xffffffff80107414                shell_handle_key
                0xffffffff801075ea                shell_init

.rodata         0xffffffff80107620     0x286b
 *(.rodata)
 .rodata        0xffffffff80107620      0x160 build/kernel/core/kprintf.o
 .rodata        0xffffffff80107780       0x70 build/kernel/processes/syscall.o
 *fill*         0xffffffff801077f0       0x10 
 .rodata        0xffffffff80107800       0x3b build/drivers/input/keyboard.o
 *fill*         0xffffffff8010783b        0x5 
 .rodata        0xffffffff80107840       0xc0 build/apps/shell/shell.o
 *(.rodata.*)
 .rodata.str1.1
                0xffffffff80107900      0x49c build/kernel/core/kernel.o
 *fill*         0xffffffff80107d9c        0x4 
 .rodata.str1.8
                0xffffffff80107da0      0x2a0 build/kernel/core/kernel.o
 .rodata.str1.1
                0xffffffff80108040       0x18 build/kernel/core/kprintf.o
 .rodata.str1.1
                0xffffffff80108058       0x55 build/kernel/core/panic.o
 .rodata.str1.1
                0xffffffff801080ad       0xe0 build/kernel/memory/mem.o
 *fill*         0xffffffff8010818d        0x3 
 .rodata.str1.8
                0xffffffff80108190       0x6f build/kernel/memory/mem.o
 .rodata.str1.1
                0xffffffff801081ff      0x1f8 build/kernel/memory/pmm.o
 *fill*         0xffffffff801083f7        0x1 
 .rodata.str1.8
                0xffffffff801083f8       0xdb build/kernel/memory/pmm.o
 *fill*         0xffffffff801084d3        0x5 
 .rodata.str1.8
                0xffffffff801084d8      0x367 build/kernel/processes/process.o
 .rodata.str1.1
                0xffffffff8010883f      0x129 build/kernel/processes/process.o
 .rodata.str1.1
                0xffffffff80108968       0x86 build/kernel/processes/scheduler.o
 *fill*         0xffffffff801089ee        0x2 
 .rodata.str1.8
                0xffffffff801089f0       0xbf build/kernel/processes/scheduler.o
 *fill*         0xffffffff80108aaf        0x1 
 .rodata.str1.8
                0xffffffff80108ab0       0xe9 build/kernel/processes/syscall.o
 .rodata.str1.1
                0xffffffff80108b99      0x114 build/kernel/processes/syscall.o
 .rodata.str1.1
                0xffffffff80108cad       0x34 build/kernel/architecture/x86_64/gdt.o
 .rodata.str1.1
                0xffffffff80108ce1       0x5e build/kernel/architecture/x86_64/idt.o
 .rodata.str1.1
                0xffffffff80108d3f       0x29 build/kernel/architecture/x86_64/tss.o
 .rodata.str1.8
                0xffffffff80108d68      0x1cc build/kernel/architecture/x86_64/paging.o
 .rodata.str1.1
                0xffffffff80108f34       0xc6 build/kernel/architecture/x86_64/paging.o
 *fill*         0xffffffff80108ffa        0x6 
 .rodata.str1.8
                0xffffffff80109000       0x28 build/kernel/architecture/x86_64/usermode.o
 .rodata.str1.1
                0xffffffff80109028       0x3e build/drivers/serial/serial.o
 *fill*         0xffffffff80109066        0x2 
 .rodata.str1.8
                0xffffffff80109068       0x1f build/drivers/random/random.o
 .rodata.str1.1
                0xffffffff80109087      0x184 build/file_system/vfs/vfs.o
 *fill*         0xffffffff8010920b        0x5 
 .rodata.str1.8
                0xffffffff80109210      0x3ab build/file_system/vfs/vfs.o
 *fill*         0xffffffff801095bb        0x5 
 .rodata.str1.8
                0xffffffff801095c0      0x296 build/file_system/shadowfs/shadowfs.o
 .rodata.str1.1
                0xffffffff80109856      0x109 build/file_system/shadowfs/shadowfs.o
 *fill*         0xffffffff8010995f        0x1 
 .rodata.str1.8
                0xffffffff80109960      0x127 build/file_system/devfs/devfs.o
 .rodata.str1.1
                0xffffffff80109a87       0x68 build/file_system/devfs/devfs.o
 .rodata.str1.1
                0xffffffff80109aef      0x190 build/apps/shell/shell.o
 *fill*         0xffffffff80109c7f        0x1 
 .rodata.str1.8
                0xffffffff80109c80      0x20b build/apps/shell/shell.o

.eh_frame       0xffffffff80109e90     0x17e0
 .eh_frame      0xffffffff80109e90       0x88 build/kernel/core/kernel.o
 .eh_frame      0xffffffff80109f18       0xe8 build/kernel/core/kprintf.o
 .eh_frame      0xffffffff8010a000       0x38 build/kernel/core/panic.o
 .eh_frame      0xffffffff8010a038       0xa0 build/kernel/memory/mem.o
 .eh_frame      0xffffffff8010a0d8      0x108 build/kernel/memory/pmm.o
 .eh_frame      0xffffffff8010a1e0      0x180 build/kernel/processes/process.o
 .eh_frame      0xffffffff8010a360       0xd0 build/kernel/processes/scheduler.o
 .eh_frame      0xffffffff8010a430      0x280 build/kernel/processes/syscall.o
 .eh_frame      0xffffffff8010a6b0       0x58 build/kernel/architecture/x86_64/gdt.o
 .eh_frame      0xffffffff8010a708       0x98 build/kernel/architecture/x86_64/idt.o
 .eh_frame      0xffffffff8010a7a0       0x68 build/kernel/architecture/x86_64/pic.o
 .eh_frame      0xffffffff8010a808       0x50 build/kernel/architecture/x86_64/tss.o
 .eh_frame      0xffffffff8010a858      0x218 build/kernel/architecture/x86_64/paging.o
 .eh_frame      0xffffffff8010aa70       0x40 build/kernel/architecture/x86_64/usermode.o
 .eh_frame      0xffffffff8010aab0       0xc8 build/drivers/display/vga.o
 .eh_frame      0xffffffff8010ab78       0xb8 build/drivers/input/keyboard.o
 .eh_frame      0xffffffff8010ac30       0x78 build/drivers/timer/timer.o
 .eh_frame      0xffffffff8010aca8       0xd8 build/drivers/serial/serial.o
 .eh_frame      0xffffffff8010ad80       0x40 build/drivers/null/null.o
 .eh_frame      0xffffffff8010adc0       0x48 build/drivers/random/random.o
 .eh_frame      0xffffffff8010ae08      0x268 build/file_system/vfs/vfs.o
 .eh_frame      0xffffffff8010b070      0x250 build/file_system/shadowfs/shadowfs.o
 .eh_frame      0xffffffff8010b2c0      0x188 build/file_system/devfs/devfs.o
 .eh_frame      0xffffffff8010b448      0x228 build/apps/shell/shell.o

.data           0xffffffff8010b680       0xc0
 *(.data)
 .data          0xffffffff8010b680        0x0 build/kernel/core/kernel.o
 .data          0xffffffff8010b680        0x0 build/kernel/core/kprintf.o
 .data          0xffffffff8010b680        0x0 build/kernel/core/panic.o
 .data          0xffffffff8010b680        0x0 build/kernel/memory/mem.o
 .data          0xffffffff8010b680        0x0 build/kernel/memory/pmm.o
 .data          0xffffffff8010b680        0x0 build/kernel/processes/process.o
 .data          0xffffffff8010b680        0x0 build/kernel/processes/scheduler.o
 .data          0xffffffff8010b680        0x0 build/kernel/processes/syscall.o
 .data          0xffffffff8010b680        0x0 build/kernel/architecture/x86_64/gdt.o
 .data          0xffffffff8010b680        0x0 build/kernel/architecture/x86_64/idt.o
 .data          0xffffffff8010b680        0x0 build/kernel/architecture/x86_64/pic.o
 .data          0xffffffff8010b680        0x0 build/kernel/architecture/x86_64/tss.o
 .data          0xffffffff8010b680        0x0 build/kernel/architecture/x86_64/paging.o
 .data          0xffffffff8010b680        0x0 build/kernel/architecture/x86_64/usermode.o
 .data          0xffffffff8010b680        0x0 build/drivers/display/vga.o
 .data          0xffffffff8010b680        0x0 build/drivers/input/keyboard.o
 .data          0xffffffff8010b680        0x0 build/drivers/timer/timer.o
 .data          0xffffffff8010b680        0x0 build/drivers/serial/serial.o
 .data          0xffffffff8010b680        0x0 build/drivers/null/null.o
 .data          0xffffffff8010b680        0x0 build/drivers/random/random.o
 .data          0xffffffff8010b680        0x0 build/file_system/vfs/vfs.o
 .data          0xffffffff8010b680       0x60 build/file_system/shadowfs/shadowfs.o
 .data          0xffffffff8010b6e0       0x60 build/file_system/devfs/devfs.o
 .data          0xffffffff8010b740        0x0 build/apps/shell/shell.o

.bss            0xffffffff8010c000     0x4480
                0xffffffff8010c000                __bss_start = .
 *(.bss)
 .bss           0xffffffff8010c000        0x0 build/kernel/core/kernel.o
 .bss           0xffffffff8010c000        0x0 build/kernel/core/kprintf.o
 .bss           0xffffffff8010c000        0x0 build/kernel/core/panic.o
 .bss           0xffffffff8010c000       0x10 build/kernel/memory/mem.o
 .bss           0xffffffff8010c010       0x10 build/kernel/memory/pmm.o
 .bss           0xffffffff8010c020       0xa0 build/kernel/processes/process.o
                0xffffffff8010c020                next_pid
                0xffffffff8010c028                current_process
                0xffffffff8010c040                process_table
 .bss           0xffffffff8010c0c0       0x10 build/kernel/processes/scheduler.o
 .bss           0xffffffff8010c0d0        0x0 build/kernel/processes/syscall.o
 *fill*         0xffffffff8010c0d0       0x10 
 .bss           0xffffffff8010c0e0       0x58 build/kernel/architecture/x86_64/gdt.o
 *fill*         0xffffffff8010c138        0x8 
 .bss           0xffffffff8010c140     0x1020 build/kernel/architecture/x86_64/idt.o
 .bss           0xffffffff8010d160        0x0 build/kernel/architecture/x86_64/pic.o
 .bss           0xffffffff8010d160       0x68 build/kernel/architecture/x86_64/tss.o
 .bss           0xffffffff8010d1c8        0x8 build/kernel/architecture/x86_64/paging.o
                0xffffffff8010d1c8                kernel_pml4
 *fill*         0xffffffff8010d1d0      0xe30 
 .bss           0xffffffff8010e000     0x1000 build/kernel/architecture/x86_64/usermode.o
 .bss           0xffffffff8010f000        0xc build/drivers/display/vga.o
 *fill*         0xffffffff8010f00c        0x4 
 .bss           0xffffffff8010f010        0x9 build/drivers/input/keyboard.o
                0xffffffff8010f010                keyboard_waiting
 *fill*         0xffffffff8010f019        0x3 
 .bss           0xffffffff8010f01c        0x4 build/drivers/timer/timer.o
 .bss           0xffffffff8010f020        0x0 build/drivers/serial/serial.o
 .bss           0xffffffff8010f020        0x0 build/drivers/null/null.o
 .bss           0xffffffff8010f020        0x0 build/drivers/random/random.o
 .bss           0xffffffff8010f020      0xe20 build/file_system/vfs/vfs.o
 .bss           0xffffffff8010fe40        0x0 build/file_system/shadowfs/shadowfs.o
 .bss           0xffffffff8010fe40      0x518 build/file_system/devfs/devfs.o
 *fill*         0xffffffff80110358        0x8 
 .bss           0xffffffff80110360      0x120 build/apps/shell/shell.o
 *(COMMON)
                0xffffffff80110480                __bss_end = .
LOAD build/kernel/architecture/x86_64/start.asm.o
LOAD build/kernel/architecture/x86_64/gdt_flush.asm.o
LOAD build/kernel/architecture/x86_64/idt_flush.asm.o
LOAD build/kernel/architecture/x86_64/isr.asm.o
LOAD build/kernel/architecture/x86_64/switch.asm.o
LOAD build/kernel/architecture/x86_64/usermode.asm.o
LOAD build/kernel/core/kernel.o
LOAD build/kernel/core/kprintf.o
LOAD build/kernel/core/panic.o
LOAD build/kernel/memory/mem.o
LOAD build/kernel/memory/pmm.o
LOAD build/kernel/processes/process.o
LOAD build/kernel/processes/scheduler.o
LOAD build/kernel/processes/syscall.o
LOAD build/kernel/architecture/x86_64/gdt.o
LOAD build/kernel/architecture/x86_64/idt.o
LOAD build/kernel/architecture/x86_64/pic.o
LOAD build/kernel/architecture/x86_64/tss.o
LOAD build/kernel/architecture/x86_64/paging.o
LOAD build/kernel/architecture/x86_64/usermode.o
LOAD build/drivers/display/vga.o
LOAD build/drivers/input/keyboard.o
LOAD build/drivers/timer/timer.o
LOAD build/drivers/serial/serial.o
LOAD build/drivers/null/null.o
LOAD build/drivers/random/random.o
LOAD build/file_system/vfs/vfs.o
LOAD build/file_system/shadowfs/shadowfs.o
LOAD build/file_system/devfs/devfs.o
LOAD build/apps/shell/shell.o
OUTPUT(build/kernel.bin binary)

.comment        0x0000000000000000      0x1c8
 .comment       0x0000000000000000       0x13 build/kernel/core/kernel.o
 .comment       0x0000000000000013       0x13 build/kernel/core/kprintf.o
 .comment       0x0000000000000026       0x13 build/kernel/core/panic.o
 .comment       0x0000000000000039       0x13 build/kernel/memory/mem.o
 .comment       0x000000000000004c       0x13 build/kernel/memory/pmm.o
 .comment       0x000000000000005f       0x13 build/kernel/processes/process.o
 .comment       0x0000000000000072       0x13 build/kernel/processes/scheduler.o
 .comment       0x0000000000000085       0x13 build/kernel/processes/syscall.o
 .comment       0x0000000000000098       0x13 build/kernel/architecture/x86_64/gdt.o
 .comment       0x00000000000000ab       0x13 build/kernel/architecture/x86_64/idt.o
 .comment       0x00000000000000be       0x13 build/kernel/architecture/x86_64/pic.o
 .comment       0x00000000000000d1       0x13 build/kernel/architecture/x86_64/tss.o
 .comment       0x00000000000000e4       0x13 build/kernel/architecture/x86_64/paging.o
 .comment       0x00000000000000f7       0x13 build/kernel/architecture/x86_64/usermode.o
 .comment       0x000000000000010a       0x13 build/drivers/display/vga.o
 .comment       0x000000000000011d       0x13 build/drivers/input/keyboard.o
 .comment       0x0000000000000130       0x13 build/drivers/timer/timer.o
 .comment       0x0000000000000143       0x13 build/drivers/serial/serial.o
 .comment       0x0000000000000156       0x13 build/drivers/null/null.o
 .comment       0x0000000000000169       0x13 build/drivers/random/random.o
 .comment       0x000000000000017c       0x13 build/file_system/vfs/vfs.o
 .comment       0x000000000000018f       0x13 build/file_system/shadowfs/shadowfs.o
 .comment       0x00000000000001a2       0x13 build/file_system/devfs/devfs.o
 .comment       0x00000000000001b5       0x13 build/apps/shell/shell.o
